target datalayout = "e-m:e-p270:32:32-p271:32:32-p272:64:64-i64:64-i128:128-f80:128-n8:16:32:64-S128"
target triple = "x86_64-pc-linux-gnu"

%"class.vcg::Point3" = type { [3 x float] }
%"class.vcg::Transform" = type { %"class.vcg::Similarityf", %"class.vcg::Point3", float }
%"class.vcg::Similarityf" = type { %"class.vcg::Similarity" }
%"class.vcg::Similarity" = type { %"class.vcg::Quaternion", %"class.vcg::Point3", float }
%"class.vcg::Quaternion" = type { %"class.vcg::Point4" }
%"class.vcg::Point4" = type { [4 x float] }
%"class.vcg::Trackball" = type <{ %"class.vcg::Transform", %"class.vcg::View", i32, ptr, ptr, ptr, %"class.std::map", %"class.vcg::Similarityf", %"class.vcg::Similarityf", %"class.vcg::Similarityf", %"class.vcg::Point3", [4 x i8], %"class.std::vector", i8, [3 x i8], i32, i32, %"class.vcg::Quaternion", i8, i8, [2 x i8], %"class.std::__cxx11::list", i32, i8, [3 x i8] }>
%"class.vcg::View" = type <{ %"class.vcg::Matrix44", %"class.vcg::Matrix44", %"class.vcg::Matrix44", %"class.vcg::Matrix44", [4 x i32], i8, [3 x i8] }>
%"class.vcg::Matrix44" = type { %"struct.std::array" }
%"struct.std::array" = type { [16 x float] }
%"class.std::map" = type { %"class.std::_Rb_tree" }
%"class.std::_Rb_tree" = type { %"struct.std::_Rb_tree<int, std::pair<const int, vcg::TrackMode *>, std::_Select1st<std::pair<const int, vcg::TrackMode *>>, std::less<int>>::_Rb_tree_impl" }
%"struct.std::_Rb_tree<int, std::pair<const int, vcg::TrackMode *>, std::_Select1st<std::pair<const int, vcg::TrackMode *>>, std::less<int>>::_Rb_tree_impl" = type { %"struct.std::_Rb_tree_key_compare", %"struct.std::_Rb_tree_header" }
%"struct.std::_Rb_tree_key_compare" = type { %"struct.std::less" }
%"struct.std::less" = type { i8 }
%"struct.std::_Rb_tree_header" = type { %"struct.std::_Rb_tree_node_base", i64 }
%"struct.std::_Rb_tree_node_base" = type { i32, ptr, ptr, ptr }
%"class.std::vector" = type { %"struct.std::_Vector_base" }
%"struct.std::_Vector_base" = type { %"struct.std::_Vector_base<vcg::Point3<float>, std::allocator<vcg::Point3<float>>>::_Vector_impl" }
%"struct.std::_Vector_base<vcg::Point3<float>, std::allocator<vcg::Point3<float>>>::_Vector_impl" = type { %"struct.std::_Vector_base<vcg::Point3<float>, std::allocator<vcg::Point3<float>>>::_Vector_impl_data" }
%"struct.std::_Vector_base<vcg::Point3<float>, std::allocator<vcg::Point3<float>>>::_Vector_impl_data" = type { ptr, ptr, ptr }
%"class.std::__cxx11::list" = type { %"class.std::__cxx11::_List_base" }
%"class.std::__cxx11::_List_base" = type { %"struct.std::__cxx11::_List_base<vcg::Transform, std::allocator<vcg::Transform>>::_List_impl" }
%"struct.std::__cxx11::_List_base<vcg::Transform, std::allocator<vcg::Transform>>::_List_impl" = type { %"struct.std::__detail::_List_node_header" }
%"struct.std::__detail::_List_node_header" = type { %"struct.std::__detail::_List_node_base", i64 }
%"struct.std::__detail::_List_node_base" = type { ptr, ptr }

@_ZTVN3vcg12InactiveModeE = external unnamed_addr constant { [14 x ptr] }, align 8
@_ZTVN3vcg9TrackModeE = external unnamed_addr constant { [14 x ptr] }, align 8
@_ZTVN3vcg10SphereModeE = external unnamed_addr constant { [14 x ptr] }, align 8
@_ZTVN3vcg7PanModeE = external unnamed_addr constant { [14 x ptr] }, align 8
@_ZTVN3vcg9ScaleModeE = external unnamed_addr constant { [14 x ptr] }, align 8
@_ZTVN3vcg5ZModeE = external unnamed_addr constant { [14 x ptr] }, align 8

; Function Attrs: mustprogress nounwind uwtable
define linkonce_odr void @_ZN3vcg9TrackModeC2Ev(ptr noundef nonnull align 8 dereferenceable(8) %0) unnamed_addr #4 comdat align 2 {
  %2 = alloca ptr, align 8
  store ptr %0, ptr %2, align 8
  %3 = load ptr, ptr %2, align 8
  store ptr getelementptr inbounds ({ [14 x ptr] }, ptr @_ZTVN3vcg9TrackModeE, i32 0, i32 0, i32 2), ptr %3, align 8
  ret void
}

; Function Attrs: mustprogress nounwind uwtable
define linkonce_odr void @_ZN3vcg5ZModeC2Ev(ptr noundef nonnull align 8 dereferenceable(8) %0) unnamed_addr #4 comdat align 2 {
  %2 = alloca ptr, align 8
  store ptr %0, ptr %2, align 8
  %3 = load ptr, ptr %2, align 8
  call void @_ZN3vcg9TrackModeC2Ev(ptr noundef nonnull align 8 dereferenceable(8) %3) #3
  store ptr getelementptr inbounds ({ [14 x ptr] }, ptr @_ZTVN3vcg5ZModeE, i32 0, i32 0, i32 2), ptr %3, align 8
  ret void
}

; Function Attrs: mustprogress nounwind uwtable
define linkonce_odr void @_ZN3vcg9ScaleModeC2Ev(ptr noundef nonnull align 8 dereferenceable(8) %0) unnamed_addr #4 comdat align 2 {
  %2 = alloca ptr, align 8
  store ptr %0, ptr %2, align 8
  %3 = load ptr, ptr %2, align 8
  call void @_ZN3vcg9TrackModeC2Ev(ptr noundef nonnull align 8 dereferenceable(8) %3) #3
  store ptr getelementptr inbounds ({ [14 x ptr] }, ptr @_ZTVN3vcg9ScaleModeE, i32 0, i32 0, i32 2), ptr %3, align 8
  ret void
}

; Function Attrs: mustprogress nounwind uwtable
define linkonce_odr void @_ZN3vcg7PanModeC2Ev(ptr noundef nonnull align 8 dereferenceable(8) %0) unnamed_addr #4 comdat align 2 {
  %2 = alloca ptr, align 8
  store ptr %0, ptr %2, align 8
  %3 = load ptr, ptr %2, align 8
  call void @_ZN3vcg9TrackModeC2Ev(ptr noundef nonnull align 8 dereferenceable(8) %3) #3
  store ptr getelementptr inbounds ({ [14 x ptr] }, ptr @_ZTVN3vcg7PanModeE, i32 0, i32 0, i32 2), ptr %3, align 8
  ret void
}

; Function Attrs: mustprogress nounwind uwtable
define linkonce_odr void @_ZN3vcg10SphereModeC2Ev(ptr noundef nonnull align 8 dereferenceable(8) %0) unnamed_addr #4 comdat align 2 {
  %2 = alloca ptr, align 8
  store ptr %0, ptr %2, align 8
  %3 = load ptr, ptr %2, align 8
  call void @_ZN3vcg9TrackModeC2Ev(ptr noundef nonnull align 8 dereferenceable(8) %3) #3
  store ptr getelementptr inbounds ({ [14 x ptr] }, ptr @_ZTVN3vcg10SphereModeE, i32 0, i32 0, i32 2), ptr %3, align 8
  ret void
}

; Function Attrs: mustprogress nounwind uwtable
define linkonce_odr void @_ZN3vcg12InactiveModeC2Ev(ptr noundef nonnull align 8 dereferenceable(8) %0) unnamed_addr #4 comdat align 2 {
  %2 = alloca ptr, align 8
  store ptr %0, ptr %2, align 8
  %3 = load ptr, ptr %2, align 8
  call void @_ZN3vcg9TrackModeC2Ev(ptr noundef nonnull align 8 dereferenceable(8) %3) #3
  store ptr getelementptr inbounds ({ [14 x ptr] }, ptr @_ZTVN3vcg12InactiveModeE, i32 0, i32 0, i32 2), ptr %3, align 8
  ret void
}

; Function Attrs: mustprogress uwtable
define void @_ZN3vcg9Trackball17setDefaultMappingEv(ptr noundef nonnull align 8 dereferenceable(597) %0) #5 align 2 {
  %2 = alloca ptr, align 8
  %3 = alloca i32, align 4
  %4 = alloca i32, align 4
  %5 = alloca i32, align 4
  %6 = alloca i32, align 4
  %7 = alloca i32, align 4
  %8 = alloca i32, align 4
  %9 = alloca i32, align 4
  %10 = alloca i32, align 4
  store ptr %0, ptr %2, align 8
  %11 = load ptr, ptr %2, align 8
  %12 = getelementptr inbounds %"class.vcg::Trackball", ptr %11, i32 0, i32 5
  store ptr null, ptr %12, align 8
  %13 = call noalias noundef nonnull ptr @_Znwm(i64 noundef 8) #17
  call void @llvm.memset.p0.i64(ptr align 8 %13, i8 0, i64 8, i1 false)
  call void @_ZN3vcg12InactiveModeC2Ev(ptr noundef nonnull align 8 dereferenceable(8) %13) #3
  %14 = getelementptr inbounds %"class.vcg::Trackball", ptr %11, i32 0, i32 4
  store ptr %13, ptr %14, align 8
  call void @_ZN3vcg9Trackball10ClearModesEv(ptr noundef nonnull align 8 dereferenceable(597) %11)
  %15 = getelementptr inbounds %"class.vcg::Trackball", ptr %11, i32 0, i32 6
  store i32 0, ptr %3, align 4
  %16 = call noundef nonnull align 8 dereferenceable(8) ptr @_ZNSt3mapIiPN3vcg9TrackModeESt4lessIiESaISt4pairIKiS2_EEEixEOi(ptr noundef nonnull align 8 dereferenceable(48) %15, ptr noundef nonnull align 4 dereferenceable(4) %3)
  store ptr null, ptr %16, align 8
  %17 = call noalias noundef nonnull ptr @_Znwm(i64 noundef 8) #17
  call void @llvm.memset.p0.i64(ptr align 8 %17, i8 0, i64 8, i1 false)
  call void @_ZN3vcg10SphereModeC2Ev(ptr noundef nonnull align 8 dereferenceable(8) %17) #3
  %18 = getelementptr inbounds %"class.vcg::Trackball", ptr %11, i32 0, i32 6
  store i32 1, ptr %4, align 4
  %19 = call noundef nonnull align 8 dereferenceable(8) ptr @_ZNSt3mapIiPN3vcg9TrackModeESt4lessIiESaISt4pairIKiS2_EEEixEOi(ptr noundef nonnull align 8 dereferenceable(48) %18, ptr noundef nonnull align 4 dereferenceable(4) %4)
  store ptr %17, ptr %19, align 8
  %20 = getelementptr inbounds %"class.vcg::Trackball", ptr %11, i32 0, i32 6
  store i32 66, ptr %5, align 4
  %21 = call noundef nonnull align 8 dereferenceable(8) ptr @_ZNSt3mapIiPN3vcg9TrackModeESt4lessIiESaISt4pairIKiS2_EEEixEOi(ptr noundef nonnull align 8 dereferenceable(48) %20, ptr noundef nonnull align 4 dereferenceable(4) %5)
  store ptr %17, ptr %21, align 8
  %22 = call noalias noundef nonnull ptr @_Znwm(i64 noundef 8) #17
  call void @llvm.memset.p0.i64(ptr align 8 %22, i8 0, i64 8, i1 false)
  call void @_ZN3vcg7PanModeC2Ev(ptr noundef nonnull align 8 dereferenceable(8) %22) #3
  %23 = getelementptr inbounds %"class.vcg::Trackball", ptr %11, i32 0, i32 6
  store i32 33, ptr %6, align 4
  %24 = call noundef nonnull align 8 dereferenceable(8) ptr @_ZNSt3mapIiPN3vcg9TrackModeESt4lessIiESaISt4pairIKiS2_EEEixEOi(ptr noundef nonnull align 8 dereferenceable(48) %23, ptr noundef nonnull align 4 dereferenceable(4) %6)
  store ptr %22, ptr %24, align 8
  %25 = call noalias noundef nonnull ptr @_Znwm(i64 noundef 8) #17
  call void @llvm.memset.p0.i64(ptr align 8 %25, i8 0, i64 8, i1 false)
  call void @_ZN3vcg7PanModeC2Ev(ptr noundef nonnull align 8 dereferenceable(8) %25) #3
  %26 = getelementptr inbounds %"class.vcg::Trackball", ptr %11, i32 0, i32 6
  store i32 2, ptr %7, align 4
  %27 = call noundef nonnull align 8 dereferenceable(8) ptr @_ZNSt3mapIiPN3vcg9TrackModeESt4lessIiESaISt4pairIKiS2_EEEixEOi(ptr noundef nonnull align 8 dereferenceable(48) %26, ptr noundef nonnull align 4 dereferenceable(4) %7)
  store ptr %25, ptr %27, align 8
  %28 = call noalias noundef nonnull ptr @_Znwm(i64 noundef 8) #17
  call void @llvm.memset.p0.i64(ptr align 8 %28, i8 0, i64 8, i1 false)
  call void @_ZN3vcg9ScaleModeC2Ev(ptr noundef nonnull align 8 dereferenceable(8) %28) #3
  %29 = getelementptr inbounds %"class.vcg::Trackball", ptr %11, i32 0, i32 6
  store i32 17, ptr %8, align 4
  %30 = call noundef nonnull align 8 dereferenceable(8) ptr @_ZNSt3mapIiPN3vcg9TrackModeESt4lessIiESaISt4pairIKiS2_EEEixEOi(ptr noundef nonnull align 8 dereferenceable(48) %29, ptr noundef nonnull align 4 dereferenceable(4) %8)
  store ptr %28, ptr %30, align 8
  %31 = getelementptr inbounds %"class.vcg::Trackball", ptr %11, i32 0, i32 6
  store i32 8, ptr %9, align 4
  %32 = call noundef nonnull align 8 dereferenceable(8) ptr @_ZNSt3mapIiPN3vcg9TrackModeESt4lessIiESaISt4pairIKiS2_EEEixEOi(ptr noundef nonnull align 8 dereferenceable(48) %31, ptr noundef nonnull align 4 dereferenceable(4) %9)
  store ptr %28, ptr %32, align 8
  %33 = call noalias noundef nonnull ptr @_Znwm(i64 noundef 8) #17
  call void @llvm.memset.p0.i64(ptr align 8 %33, i8 0, i64 8, i1 false)
  call void @_ZN3vcg5ZModeC2Ev(ptr noundef nonnull align 8 dereferenceable(8) %33) #3
  %34 = getelementptr inbounds %"class.vcg::Trackball", ptr %11, i32 0, i32 6
  store i32 65, ptr %10, align 4
  %35 = call noundef nonnull align 8 dereferenceable(8) ptr @_ZNSt3mapIiPN3vcg9TrackModeESt4lessIiESaISt4pairIKiS2_EEEixEOi(ptr noundef nonnull align 8 dereferenceable(48) %34, ptr noundef nonnull align 4 dereferenceable(4) %10)
  store ptr %33, ptr %35, align 8
  ret void
}